; Function Attrs: nounwind uwtable
define internal void @_path_duplicate_points(ptr readnone captures(none) %0, ptr noundef readonly captures(none) %1, ptr noundef captures(none) %2) #3 {
  %.010 = load ptr, ptr %1, align 8, !tbaa !25
  %.not11 = icmp eq ptr %.010, null
  br i1 %.not11, label %._crit_edge, label %.lr.ph.preheader

.lr.ph.preheader:                                 ; preds = %3
  %.pre = load ptr, ptr %2, align 8, !tbaa !18
  br label %.lr.ph

._crit_edge:                                      ; preds = %.lr.ph, %3
  ret void

.lr.ph:                                           ; preds = %.lr.ph.preheader, %.lr.ph
  %4 = phi ptr [ %7, %.lr.ph ], [ %.pre, %.lr.ph.preheader ]
  %.012 = phi ptr [ %.0, %.lr.ph ], [ %.010, %.lr.ph.preheader ]
  %5 = load ptr, ptr %.012, align 8, !tbaa !29
  %6 = tail call noalias dereferenceable_or_null(36) ptr @malloc(i64 noundef 36) #22
  tail call void @llvm.memcpy.p0.p0.i64(ptr noundef nonnull align 4 dereferenceable(36) %6, ptr noundef nonnull align 4 dereferenceable(36) %5, i64 36, i1 false)
  %7 = tail call ptr @g_list_append(ptr noundef %4, ptr noundef nonnull %6) #21
  store ptr %7, ptr %2, align 8, !tbaa !18
  %8 = getelementptr inbounds nuw i8, ptr %.012, i64 8
  %.0 = load ptr, ptr %8, align 8, !tbaa !25
  %.not = icmp eq ptr %.0, null
  br i1 %.not, label %._crit_edge, label %.lr.ph
}